target datalayout = "e-m:e-p270:32:32-p271:32:32-p272:64:64-i64:64-i128:128-f80:128-n8:16:32:64-S128"
target triple = "x86_64-pc-linux-gnu"

%struct.jpeg_compress_struct = type { ptr, ptr, ptr, ptr, i32, i32, ptr, i32, i32, i32, i32, double, i32, i32, i32, ptr, [4 x ptr], [4 x ptr], [4 x ptr], [16 x i8], [16 x i8], [16 x i8], i32, ptr, i32, i32, i32, i32, i32, i32, i32, i32, i32, i8, i8, i8, i16, i16, i32, i32, i32, i32, i32, i32, i32, [4 x ptr], i32, i32, i32, [10 x i32], i32, i32, i32, i32, ptr, ptr, ptr, ptr, ptr, ptr, ptr, ptr, ptr, ptr, i32 }
%struct.jpeg_error_mgr = type { ptr, ptr, ptr, ptr, ptr, i32, %union.anon, i32, i64, ptr, i32, ptr, i32, i32 }
%union.anon = type { [8 x i32], [48 x i8] }
%struct.ppm_source_struct = type { %struct.cjpeg_source_struct, ptr, ptr, i64, ptr, i32 }
%struct.cjpeg_source_struct = type { ptr, ptr, ptr, ptr, ptr, ptr, ptr, i32, i32 }

@rgb_pixelsize = internal constant [17 x i32] [i32 -1, i32 -1, i32 3, i32 -1, i32 -1, i32 -1, i32 3, i32 4, i32 3, i32 4, i32 4, i32 4, i32 4, i32 4, i32 4, i32 4, i32 -1], align 16
@rgb_red = internal constant [17 x i32] [i32 -1, i32 -1, i32 0, i32 -1, i32 -1, i32 -1, i32 0, i32 0, i32 2, i32 2, i32 3, i32 1, i32 0, i32 2, i32 3, i32 1, i32 -1], align 16
@rgb_green = internal constant [17 x i32] [i32 -1, i32 -1, i32 1, i32 -1, i32 -1, i32 -1, i32 1, i32 1, i32 1, i32 1, i32 2, i32 2, i32 1, i32 1, i32 2, i32 2, i32 -1], align 16
@rgb_blue = internal constant [17 x i32] [i32 -1, i32 -1, i32 2, i32 -1, i32 -1, i32 -1, i32 2, i32 2, i32 0, i32 0, i32 1, i32 3, i32 2, i32 0, i32 1, i32 3, i32 -1], align 16
@alpha_index = internal global [17 x i32] [i32 -1, i32 -1, i32 -1, i32 -1, i32 -1, i32 -1, i32 -1, i32 -1, i32 -1, i32 -1, i32 -1, i32 -1, i32 3, i32 3, i32 0, i32 0, i32 -1], align 16

; Function Attrs: nounwind uwtable
define internal i32 @get_word_rgb_row(ptr noundef %0, ptr noundef %1) #0 {
  %3 = alloca ptr, align 8
  %4 = alloca ptr, align 8
  %5 = alloca ptr, align 8
  %6 = alloca ptr, align 8
  %7 = alloca ptr, align 8
  %8 = alloca ptr, align 8
  %9 = alloca i32, align 4
  %10 = alloca i32, align 4
  %11 = alloca i32, align 4
  %12 = alloca i32, align 4
  %13 = alloca i32, align 4
  %14 = alloca i32, align 4
  %15 = alloca i32, align 4
  %16 = alloca i32, align 4
  store ptr %0, ptr %3, align 8, !tbaa !4
  store ptr %1, ptr %4, align 8, !tbaa !46
  call void @llvm.lifetime.start.p0(i64 8, ptr %5) #6
  %17 = load ptr, ptr %4, align 8, !tbaa !46
  store ptr %17, ptr %5, align 8, !tbaa !37
  call void @llvm.lifetime.start.p0(i64 8, ptr %6) #6
  call void @llvm.lifetime.start.p0(i64 8, ptr %7) #6
  call void @llvm.lifetime.start.p0(i64 8, ptr %8) #6
  %18 = load ptr, ptr %5, align 8, !tbaa !37
  %19 = getelementptr inbounds nuw %struct.ppm_source_struct, ptr %18, i32 0, i32 4
  %20 = load ptr, ptr %19, align 8, !tbaa !66
  store ptr %20, ptr %8, align 8, !tbaa !73
  call void @llvm.lifetime.start.p0(i64 4, ptr %9) #6
  call void @llvm.lifetime.start.p0(i64 4, ptr %10) #6
  %21 = load ptr, ptr %5, align 8, !tbaa !37
  %22 = getelementptr inbounds nuw %struct.ppm_source_struct, ptr %21, i32 0, i32 5
  %23 = load i32, ptr %22, align 8, !tbaa !53
  store i32 %23, ptr %10, align 4, !tbaa !49
  call void @llvm.lifetime.start.p0(i64 4, ptr %11) #6
  %24 = load ptr, ptr %3, align 8, !tbaa !4
  %25 = getelementptr inbounds nuw %struct.jpeg_compress_struct, ptr %24, i32 0, i32 10
  %26 = load i32, ptr %25, align 4, !tbaa !54
  %27 = zext i32 %26 to i64
  %28 = getelementptr inbounds nuw [17 x i32], ptr @rgb_red, i64 0, i64 %27
  %29 = load i32, ptr %28, align 4, !tbaa !49
  store i32 %29, ptr %11, align 4, !tbaa !49
  call void @llvm.lifetime.start.p0(i64 4, ptr %12) #6
  %30 = load ptr, ptr %3, align 8, !tbaa !4
  %31 = getelementptr inbounds nuw %struct.jpeg_compress_struct, ptr %30, i32 0, i32 10
  %32 = load i32, ptr %31, align 4, !tbaa !54
  %33 = zext i32 %32 to i64
  %34 = getelementptr inbounds nuw [17 x i32], ptr @rgb_green, i64 0, i64 %33
  %35 = load i32, ptr %34, align 4, !tbaa !49
  store i32 %35, ptr %12, align 4, !tbaa !49
  call void @llvm.lifetime.start.p0(i64 4, ptr %13) #6
  %36 = load ptr, ptr %3, align 8, !tbaa !4
  %37 = getelementptr inbounds nuw %struct.jpeg_compress_struct, ptr %36, i32 0, i32 10
  %38 = load i32, ptr %37, align 4, !tbaa !54
  %39 = zext i32 %38 to i64
  %40 = getelementptr inbounds nuw [17 x i32], ptr @rgb_blue, i64 0, i64 %39
  %41 = load i32, ptr %40, align 4, !tbaa !49
  store i32 %41, ptr %13, align 4, !tbaa !49
  call void @llvm.lifetime.start.p0(i64 4, ptr %14) #6
  %42 = load ptr, ptr %3, align 8, !tbaa !4
  %43 = getelementptr inbounds nuw %struct.jpeg_compress_struct, ptr %42, i32 0, i32 10
  %44 = load i32, ptr %43, align 4, !tbaa !54
  %45 = zext i32 %44 to i64
  %46 = getelementptr inbounds nuw [17 x i32], ptr @alpha_index, i64 0, i64 %45
  %47 = load i32, ptr %46, align 4, !tbaa !49
  store i32 %47, ptr %14, align 4, !tbaa !49
  call void @llvm.lifetime.start.p0(i64 4, ptr %15) #6
  %48 = load ptr, ptr %3, align 8, !tbaa !4
  %49 = getelementptr inbounds nuw %struct.jpeg_compress_struct, ptr %48, i32 0, i32 10
  %50 = load i32, ptr %49, align 4, !tbaa !54
  %51 = zext i32 %50 to i64
  %52 = getelementptr inbounds nuw [17 x i32], ptr @rgb_pixelsize, i64 0, i64 %51
  %53 = load i32, ptr %52, align 4, !tbaa !49
  store i32 %53, ptr %15, align 4, !tbaa !49
  %54 = load ptr, ptr %5, align 8, !tbaa !37
  %55 = getelementptr inbounds nuw %struct.ppm_source_struct, ptr %54, i32 0, i32 1
  %56 = load ptr, ptr %55, align 8, !tbaa !61
  %57 = load ptr, ptr %5, align 8, !tbaa !37
  %58 = getelementptr inbounds nuw %struct.ppm_source_struct, ptr %57, i32 0, i32 3
  %59 = load i64, ptr %58, align 8, !tbaa !60
  %60 = load ptr, ptr %5, align 8, !tbaa !37
  %61 = getelementptr inbounds nuw %struct.ppm_source_struct, ptr %60, i32 0, i32 0
  %62 = getelementptr inbounds nuw %struct.cjpeg_source_struct, ptr %61, i32 0, i32 3
  %63 = load ptr, ptr %62, align 8, !tbaa !48
  %64 = call i64 @fread(ptr noundef %56, i64 noundef 1, i64 noundef %59, ptr noundef %63)
  %65 = load ptr, ptr %5, align 8, !tbaa !37
  %66 = getelementptr inbounds nuw %struct.ppm_source_struct, ptr %65, i32 0, i32 3
  %67 = load i64, ptr %66, align 8, !tbaa !60
  %68 = icmp eq i64 %64, %67
  br i1 %68, label %80, label %69

69:                                               ; preds = %2
  %70 = load ptr, ptr %3, align 8, !tbaa !4
  %71 = getelementptr inbounds nuw %struct.jpeg_compress_struct, ptr %70, i32 0, i32 0
  %72 = load ptr, ptr %71, align 8, !tbaa !27
  %73 = getelementptr inbounds nuw %struct.jpeg_error_mgr, ptr %72, i32 0, i32 5
  store i32 43, ptr %73, align 8, !tbaa !28
  %74 = load ptr, ptr %3, align 8, !tbaa !4
  %75 = getelementptr inbounds nuw %struct.jpeg_compress_struct, ptr %74, i32 0, i32 0
  %76 = load ptr, ptr %75, align 8, !tbaa !27
  %77 = getelementptr inbounds nuw %struct.jpeg_error_mgr, ptr %76, i32 0, i32 0
  %78 = load ptr, ptr %77, align 8, !tbaa !33
  %79 = load ptr, ptr %3, align 8, !tbaa !4
  call void %78(ptr noundef %79)
  br label %80

80:                                               ; preds = %69, %2
  %81 = load ptr, ptr %5, align 8, !tbaa !37
  %82 = getelementptr inbounds nuw %struct.ppm_source_struct, ptr %81, i32 0, i32 0
  %83 = getelementptr inbounds nuw %struct.cjpeg_source_struct, ptr %82, i32 0, i32 4
  %84 = load ptr, ptr %83, align 8, !tbaa !63
  %85 = getelementptr inbounds ptr, ptr %84, i64 0
  %86 = load ptr, ptr %85, align 8, !tbaa !73
  store ptr %86, ptr %6, align 8, !tbaa !73
  %87 = load ptr, ptr %5, align 8, !tbaa !37
  %88 = getelementptr inbounds nuw %struct.ppm_source_struct, ptr %87, i32 0, i32 1
  %89 = load ptr, ptr %88, align 8, !tbaa !61
  store ptr %89, ptr %7, align 8, !tbaa !73
  %90 = load ptr, ptr %3, align 8, !tbaa !4
  %91 = getelementptr inbounds nuw %struct.jpeg_compress_struct, ptr %90, i32 0, i32 7
  %92 = load i32, ptr %91, align 8, !tbaa !51
  store i32 %92, ptr %9, align 4, !tbaa !49
  br label %93

93:                                               ; preds = %220, %80
  %94 = load i32, ptr %9, align 4, !tbaa !49
  %95 = icmp ugt i32 %94, 0
  br i1 %95, label %96, label %223

96:                                               ; preds = %93
  call void @llvm.lifetime.start.p0(i64 4, ptr %16) #6
  %97 = load ptr, ptr %7, align 8, !tbaa !73
  %98 = getelementptr inbounds nuw i8, ptr %97, i32 1
  store ptr %98, ptr %7, align 8, !tbaa !73
  %99 = load i8, ptr %97, align 1, !tbaa !32
  %100 = zext i8 %99 to i32
  %101 = shl i32 %100, 8
  store i32 %101, ptr %16, align 4, !tbaa !49
  %102 = load ptr, ptr %7, align 8, !tbaa !73
  %103 = getelementptr inbounds nuw i8, ptr %102, i32 1
  store ptr %103, ptr %7, align 8, !tbaa !73
  %104 = load i8, ptr %102, align 1, !tbaa !32
  %105 = zext i8 %104 to i32
  %106 = load i32, ptr %16, align 4, !tbaa !49
  %107 = or i32 %106, %105
  store i32 %107, ptr %16, align 4, !tbaa !49
  %108 = load i32, ptr %16, align 4, !tbaa !49
  %109 = load i32, ptr %10, align 4, !tbaa !49
  %110 = icmp ugt i32 %108, %109
  br i1 %110, label %111, label %122

111:                                              ; preds = %96
  %112 = load ptr, ptr %3, align 8, !tbaa !4
  %113 = getelementptr inbounds nuw %struct.jpeg_compress_struct, ptr %112, i32 0, i32 0
  %114 = load ptr, ptr %113, align 8, !tbaa !27
  %115 = getelementptr inbounds nuw %struct.jpeg_error_mgr, ptr %114, i32 0, i32 5
  store i32 1031, ptr %115, align 8, !tbaa !28
  %116 = load ptr, ptr %3, align 8, !tbaa !4
  %117 = getelementptr inbounds nuw %struct.jpeg_compress_struct, ptr %116, i32 0, i32 0
  %118 = load ptr, ptr %117, align 8, !tbaa !27
  %119 = getelementptr inbounds nuw %struct.jpeg_error_mgr, ptr %118, i32 0, i32 0
  %120 = load ptr, ptr %119, align 8, !tbaa !33
  %121 = load ptr, ptr %3, align 8, !tbaa !4
  call void %120(ptr noundef %121)
  br label %122

122:                                              ; preds = %111, %96
  %123 = load ptr, ptr %8, align 8, !tbaa !73
  %124 = load i32, ptr %16, align 4, !tbaa !49
  %125 = zext i32 %124 to i64
  %126 = getelementptr inbounds nuw i8, ptr %123, i64 %125
  %127 = load i8, ptr %126, align 1, !tbaa !32
  %128 = load ptr, ptr %6, align 8, !tbaa !73
  %129 = load i32, ptr %11, align 4, !tbaa !49
  %130 = sext i32 %129 to i64
  %131 = getelementptr inbounds i8, ptr %128, i64 %130
  store i8 %127, ptr %131, align 1, !tbaa !32
  %132 = load ptr, ptr %7, align 8, !tbaa !73
  %133 = getelementptr inbounds nuw i8, ptr %132, i32 1
  store ptr %133, ptr %7, align 8, !tbaa !73
  %134 = load i8, ptr %132, align 1, !tbaa !32
  %135 = zext i8 %134 to i32
  %136 = shl i32 %135, 8
  store i32 %136, ptr %16, align 4, !tbaa !49
  %137 = load ptr, ptr %7, align 8, !tbaa !73
  %138 = getelementptr inbounds nuw i8, ptr %137, i32 1
  store ptr %138, ptr %7, align 8, !tbaa !73
  %139 = load i8, ptr %137, align 1, !tbaa !32
  %140 = zext i8 %139 to i32
  %141 = load i32, ptr %16, align 4, !tbaa !49
  %142 = or i32 %141, %140
  store i32 %142, ptr %16, align 4, !tbaa !49
  %143 = load i32, ptr %16, align 4, !tbaa !49
  %144 = load i32, ptr %10, align 4, !tbaa !49
  %145 = icmp ugt i32 %143, %144
  br i1 %145, label %146, label %157

146:                                              ; preds = %122
  %147 = load ptr, ptr %3, align 8, !tbaa !4
  %148 = getelementptr inbounds nuw %struct.jpeg_compress_struct, ptr %147, i32 0, i32 0
  %149 = load ptr, ptr %148, align 8, !tbaa !27
  %150 = getelementptr inbounds nuw %struct.jpeg_error_mgr, ptr %149, i32 0, i32 5
  store i32 1031, ptr %150, align 8, !tbaa !28
  %151 = load ptr, ptr %3, align 8, !tbaa !4
  %152 = getelementptr inbounds nuw %struct.jpeg_compress_struct, ptr %151, i32 0, i32 0
  %153 = load ptr, ptr %152, align 8, !tbaa !27
  %154 = getelementptr inbounds nuw %struct.jpeg_error_mgr, ptr %153, i32 0, i32 0
  %155 = load ptr, ptr %154, align 8, !tbaa !33
  %156 = load ptr, ptr %3, align 8, !tbaa !4
  call void %155(ptr noundef %156)
  br label %157

157:                                              ; preds = %146, %122
  %158 = load ptr, ptr %8, align 8, !tbaa !73
  %159 = load i32, ptr %16, align 4, !tbaa !49
  %160 = zext i32 %159 to i64
  %161 = getelementptr inbounds nuw i8, ptr %158, i64 %160
  %162 = load i8, ptr %161, align 1, !tbaa !32
  %163 = load ptr, ptr %6, align 8, !tbaa !73
  %164 = load i32, ptr %12, align 4, !tbaa !49
  %165 = sext i32 %164 to i64
  %166 = getelementptr inbounds i8, ptr %163, i64 %165
  store i8 %162, ptr %166, align 1, !tbaa !32
  %167 = load ptr, ptr %7, align 8, !tbaa !73
  %168 = getelementptr inbounds nuw i8, ptr %167, i32 1
  store ptr %168, ptr %7, align 8, !tbaa !73
  %169 = load i8, ptr %167, align 1, !tbaa !32
  %170 = zext i8 %169 to i32
  %171 = shl i32 %170, 8
  store i32 %171, ptr %16, align 4, !tbaa !49
  %172 = load ptr, ptr %7, align 8, !tbaa !73
  %173 = getelementptr inbounds nuw i8, ptr %172, i32 1
  store ptr %173, ptr %7, align 8, !tbaa !73
  %174 = load i8, ptr %172, align 1, !tbaa !32
  %175 = zext i8 %174 to i32
  %176 = load i32, ptr %16, align 4, !tbaa !49
  %177 = or i32 %176, %175
  store i32 %177, ptr %16, align 4, !tbaa !49
  %178 = load i32, ptr %16, align 4, !tbaa !49
  %179 = load i32, ptr %10, align 4, !tbaa !49
  %180 = icmp ugt i32 %178, %179
  br i1 %180, label %181, label %192

181:                                              ; preds = %157
  %182 = load ptr, ptr %3, align 8, !tbaa !4
  %183 = getelementptr inbounds nuw %struct.jpeg_compress_struct, ptr %182, i32 0, i32 0
  %184 = load ptr, ptr %183, align 8, !tbaa !27
  %185 = getelementptr inbounds nuw %struct.jpeg_error_mgr, ptr %184, i32 0, i32 5
  store i32 1031, ptr %185, align 8, !tbaa !28
  %186 = load ptr, ptr %3, align 8, !tbaa !4
  %187 = getelementptr inbounds nuw %struct.jpeg_compress_struct, ptr %186, i32 0, i32 0
  %188 = load ptr, ptr %187, align 8, !tbaa !27
  %189 = getelementptr inbounds nuw %struct.jpeg_error_mgr, ptr %188, i32 0, i32 0
  %190 = load ptr, ptr %189, align 8, !tbaa !33
  %191 = load ptr, ptr %3, align 8, !tbaa !4
  call void %190(ptr noundef %191)
  br label %192

192:                                              ; preds = %181, %157
  %193 = load ptr, ptr %8, align 8, !tbaa !73
  %194 = load i32, ptr %16, align 4, !tbaa !49
  %195 = zext i32 %194 to i64
  %196 = getelementptr inbounds nuw i8, ptr %193, i64 %195
  %197 = load i8, ptr %196, align 1, !tbaa !32
  %198 = load ptr, ptr %6, align 8, !tbaa !73
  %199 = load i32, ptr %13, align 4, !tbaa !49
  %200 = sext i32 %199 to i64
  %201 = getelementptr inbounds i8, ptr %198, i64 %200
  store i8 %197, ptr %201, align 1, !tbaa !32
  %202 = load i32, ptr %14, align 4, !tbaa !49
  %203 = icmp sge i32 %202, 0
  br i1 %203, label %204, label %215

204:                                              ; preds = %192
  %205 = load ptr, ptr %3, align 8, !tbaa !4
  %206 = getelementptr inbounds nuw %struct.jpeg_compress_struct, ptr %205, i32 0, i32 12
  %207 = load i32, ptr %206, align 8, !tbaa !9
  %208 = shl i32 1, %207
  %209 = sub nsw i32 %208, 1
  %210 = trunc i32 %209 to i8
  %211 = load ptr, ptr %6, align 8, !tbaa !73
  %212 = load i32, ptr %14, align 4, !tbaa !49
  %213 = sext i32 %212 to i64
  %214 = getelementptr inbounds i8, ptr %211, i64 %213
  store i8 %210, ptr %214, align 1, !tbaa !32
  br label %215

215:                                              ; preds = %204, %192
  %216 = load i32, ptr %15, align 4, !tbaa !49
  %217 = load ptr, ptr %6, align 8, !tbaa !73
  %218 = sext i32 %216 to i64
  %219 = getelementptr inbounds i8, ptr %217, i64 %218
  store ptr %219, ptr %6, align 8, !tbaa !73
  call void @llvm.lifetime.end.p0(i64 4, ptr %16) #6
  br label %220

220:                                              ; preds = %215
  %221 = load i32, ptr %9, align 4, !tbaa !49
  %222 = add i32 %221, -1
  store i32 %222, ptr %9, align 4, !tbaa !49
  br label %93, !llvm.loop !97

223:                                              ; preds = %93
  call void @llvm.lifetime.end.p0(i64 4, ptr %15) #6
  call void @llvm.lifetime.end.p0(i64 4, ptr %14) #6
  call void @llvm.lifetime.end.p0(i64 4, ptr %13) #6
  call void @llvm.lifetime.end.p0(i64 4, ptr %12) #6
  call void @llvm.lifetime.end.p0(i64 4, ptr %11) #6
  call void @llvm.lifetime.end.p0(i64 4, ptr %10) #6
  call void @llvm.lifetime.end.p0(i64 4, ptr %9) #6
  call void @llvm.lifetime.end.p0(i64 8, ptr %8) #6
  call void @llvm.lifetime.end.p0(i64 8, ptr %7) #6
  call void @llvm.lifetime.end.p0(i64 8, ptr %6) #6
  call void @llvm.lifetime.end.p0(i64 8, ptr %5) #6
  ret i32 1
}