; Function Attrs: nounwind uwtable
define internal noundef i32 @get_word_rgb_row(ptr noundef %0, ptr noundef readonly captures(none) %1) #0 {
  %3 = getelementptr inbounds nuw i8, ptr %1, i64 88
  %4 = load ptr, ptr %3, align 8, !tbaa !59
  %5 = getelementptr inbounds nuw i8, ptr %1, i64 96
  %6 = load i32, ptr %5, align 8, !tbaa !47
  %7 = getelementptr inbounds nuw i8, ptr %0, i64 60
  %8 = load i32, ptr %7, align 4, !tbaa !48
  %.fr69 = freeze i32 %8
  %9 = zext i32 %.fr69 to i64
  %10 = getelementptr inbounds nuw [17 x i32], ptr @rgb_red, i64 0, i64 %9
  %11 = load i32, ptr %10, align 4, !tbaa !49
  %12 = getelementptr inbounds nuw [17 x i32], ptr @rgb_green, i64 0, i64 %9
  %13 = load i32, ptr %12, align 4, !tbaa !49
  %14 = getelementptr inbounds nuw [17 x i32], ptr @rgb_blue, i64 0, i64 %9
  %15 = load i32, ptr %14, align 4, !tbaa !49
  %16 = getelementptr inbounds nuw [17 x i32], ptr @alpha_index, i64 0, i64 %9
  %17 = load i32, ptr %16, align 4, !tbaa !49
  %18 = getelementptr inbounds nuw [17 x i32], ptr @rgb_pixelsize, i64 0, i64 %9
  %19 = load i32, ptr %18, align 4, !tbaa !49
  %20 = getelementptr inbounds nuw i8, ptr %1, i64 64
  %21 = load ptr, ptr %20, align 8, !tbaa !54
  %22 = getelementptr inbounds nuw i8, ptr %1, i64 80
  %23 = load i64, ptr %22, align 8, !tbaa !53
  %24 = getelementptr inbounds nuw i8, ptr %1, i64 24
  %25 = load ptr, ptr %24, align 8, !tbaa !43
  %26 = tail call i64 @fread(ptr noundef %21, i64 noundef 1, i64 noundef %23, ptr noundef %25)
  %27 = load i64, ptr %22, align 8, !tbaa !53
  %28 = icmp eq i64 %26, %27
  br i1 %28, label %33, label %29

29:                                               ; preds = %2
  %30 = load ptr, ptr %0, align 8, !tbaa !25
  %31 = getelementptr inbounds nuw i8, ptr %30, i64 40
  store i32 43, ptr %31, align 8, !tbaa !26
  %32 = load ptr, ptr %30, align 8, !tbaa !31
  tail call void %32(ptr noundef nonnull %0) #6
  br label %33

33:                                               ; preds = %29, %2
  %34 = getelementptr inbounds nuw i8, ptr %0, i64 48
  %35 = load i32, ptr %34, align 8, !tbaa !45
  %.not64 = icmp eq i32 %35, 0
  br i1 %.not64, label %._crit_edge, label %.lr.ph

.lr.ph:                                           ; preds = %33
  %36 = load ptr, ptr %20, align 8, !tbaa !54
  %37 = getelementptr inbounds nuw i8, ptr %1, i64 32
  %38 = load ptr, ptr %37, align 8, !tbaa !57
  %39 = load ptr, ptr %38, align 8, !tbaa !63
  %40 = sext i32 %11 to i64
  %41 = sext i32 %13 to i64
  %42 = sext i32 %15 to i64
  %43 = and i64 %9, 4294967292
  %44 = icmp eq i64 %43, 12
  %45 = getelementptr inbounds nuw i8, ptr %0, i64 72
  %46 = zext nneg i32 %17 to i64
  %47 = sext i32 %19 to i64
  br i1 %44, label %.lr.ph.split.us, label %.lr.ph.split

.lr.ph.split.us:                                  ; preds = %.lr.ph, %97
  %.067.us = phi ptr [ %106, %97 ], [ %39, %.lr.ph ]
  %.06166.us = phi ptr [ %88, %97 ], [ %36, %.lr.ph ]
  %.06265.us = phi i32 [ %107, %97 ], [ %35, %.lr.ph ]
  %48 = getelementptr inbounds nuw i8, ptr %.06166.us, i64 1
  %49 = load i8, ptr %.06166.us, align 1, !tbaa !30
  %50 = zext i8 %49 to i32
  %51 = shl nuw nsw i32 %50, 8
  %52 = getelementptr inbounds nuw i8, ptr %.06166.us, i64 2
  %53 = load i8, ptr %48, align 1, !tbaa !30
  %54 = zext i8 %53 to i32
  %55 = or disjoint i32 %51, %54
  %56 = icmp ugt i32 %55, %6
  br i1 %56, label %57, label %61

57:                                               ; preds = %.lr.ph.split.us
  %58 = load ptr, ptr %0, align 8, !tbaa !25
  %59 = getelementptr inbounds nuw i8, ptr %58, i64 40
  store i32 1031, ptr %59, align 8, !tbaa !26
  %60 = load ptr, ptr %58, align 8, !tbaa !31
  tail call void %60(ptr noundef nonnull %0) #6
  br label %61

61:                                               ; preds = %57, %.lr.ph.split.us
  %62 = zext nneg i32 %55 to i64
  %63 = getelementptr inbounds nuw i8, ptr %4, i64 %62
  %64 = load i8, ptr %63, align 1, !tbaa !30
  %65 = getelementptr inbounds i8, ptr %.067.us, i64 %40
  store i8 %64, ptr %65, align 1, !tbaa !30
  %66 = getelementptr inbounds nuw i8, ptr %.06166.us, i64 3
  %67 = load i8, ptr %52, align 1, !tbaa !30
  %68 = zext i8 %67 to i32
  %69 = shl nuw nsw i32 %68, 8
  %70 = getelementptr inbounds nuw i8, ptr %.06166.us, i64 4
  %71 = load i8, ptr %66, align 1, !tbaa !30
  %72 = zext i8 %71 to i32
  %73 = or disjoint i32 %69, %72
  %74 = icmp ugt i32 %73, %6
  br i1 %74, label %75, label %79

75:                                               ; preds = %61
  %76 = load ptr, ptr %0, align 8, !tbaa !25
  %77 = getelementptr inbounds nuw i8, ptr %76, i64 40
  store i32 1031, ptr %77, align 8, !tbaa !26
  %78 = load ptr, ptr %76, align 8, !tbaa !31
  tail call void %78(ptr noundef nonnull %0) #6
  br label %79

79:                                               ; preds = %75, %61
  %80 = zext nneg i32 %73 to i64
  %81 = getelementptr inbounds nuw i8, ptr %4, i64 %80
  %82 = load i8, ptr %81, align 1, !tbaa !30
  %83 = getelementptr inbounds i8, ptr %.067.us, i64 %41
  store i8 %82, ptr %83, align 1, !tbaa !30
  %84 = getelementptr inbounds nuw i8, ptr %.06166.us, i64 5
  %85 = load i8, ptr %70, align 1, !tbaa !30
  %86 = zext i8 %85 to i32
  %87 = shl nuw nsw i32 %86, 8
  %88 = getelementptr inbounds nuw i8, ptr %.06166.us, i64 6
  %89 = load i8, ptr %84, align 1, !tbaa !30
  %90 = zext i8 %89 to i32
  %91 = or disjoint i32 %87, %90
  %92 = icmp ugt i32 %91, %6
  br i1 %92, label %93, label %97

93:                                               ; preds = %79
  %94 = load ptr, ptr %0, align 8, !tbaa !25
  %95 = getelementptr inbounds nuw i8, ptr %94, i64 40
  store i32 1031, ptr %95, align 8, !tbaa !26
  %96 = load ptr, ptr %94, align 8, !tbaa !31
  tail call void %96(ptr noundef nonnull %0) #6
  br label %97

97:                                               ; preds = %93, %79
  %98 = zext nneg i32 %91 to i64
  %99 = getelementptr inbounds nuw i8, ptr %4, i64 %98
  %100 = load i8, ptr %99, align 1, !tbaa !30
  %101 = getelementptr inbounds i8, ptr %.067.us, i64 %42
  store i8 %100, ptr %101, align 1, !tbaa !30
  %102 = load i32, ptr %45, align 8, !tbaa !4
  %notmask.us = shl nsw i32 -1, %102
  %103 = trunc i32 %notmask.us to i8
  %104 = xor i8 %103, -1
  %105 = getelementptr inbounds nuw i8, ptr %.067.us, i64 %46
  store i8 %104, ptr %105, align 1, !tbaa !30
  %106 = getelementptr inbounds i8, ptr %.067.us, i64 %47
  %107 = add i32 %.06265.us, -1
  %.not.us = icmp eq i32 %107, 0
  br i1 %.not.us, label %._crit_edge, label %.lr.ph.split.us, !llvm.loop !87

.lr.ph.split:                                     ; preds = %.lr.ph, %157
  %.067 = phi ptr [ %162, %157 ], [ %39, %.lr.ph ]
  %.06166 = phi ptr [ %148, %157 ], [ %36, %.lr.ph ]
  %.06265 = phi i32 [ %163, %157 ], [ %35, %.lr.ph ]
  %108 = getelementptr inbounds nuw i8, ptr %.06166, i64 1
  %109 = load i8, ptr %.06166, align 1, !tbaa !30
  %110 = zext i8 %109 to i32
  %111 = shl nuw nsw i32 %110, 8
  %112 = getelementptr inbounds nuw i8, ptr %.06166, i64 2
  %113 = load i8, ptr %108, align 1, !tbaa !30
  %114 = zext i8 %113 to i32
  %115 = or disjoint i32 %111, %114
  %116 = icmp ugt i32 %115, %6
  br i1 %116, label %117, label %121

117:                                              ; preds = %.lr.ph.split
  %118 = load ptr, ptr %0, align 8, !tbaa !25
  %119 = getelementptr inbounds nuw i8, ptr %118, i64 40
  store i32 1031, ptr %119, align 8, !tbaa !26
  %120 = load ptr, ptr %118, align 8, !tbaa !31
  tail call void %120(ptr noundef nonnull %0) #6
  br label %121

121:                                              ; preds = %117, %.lr.ph.split
  %122 = zext nneg i32 %115 to i64
  %123 = getelementptr inbounds nuw i8, ptr %4, i64 %122
  %124 = load i8, ptr %123, align 1, !tbaa !30
  %125 = getelementptr inbounds i8, ptr %.067, i64 %40
  store i8 %124, ptr %125, align 1, !tbaa !30
  %126 = getelementptr inbounds nuw i8, ptr %.06166, i64 3
  %127 = load i8, ptr %112, align 1, !tbaa !30
  %128 = zext i8 %127 to i32
  %129 = shl nuw nsw i32 %128, 8
  %130 = getelementptr inbounds nuw i8, ptr %.06166, i64 4
  %131 = load i8, ptr %126, align 1, !tbaa !30
  %132 = zext i8 %131 to i32
  %133 = or disjoint i32 %129, %132
  %134 = icmp ugt i32 %133, %6
  br i1 %134, label %135, label %139

135:                                              ; preds = %121
  %136 = load ptr, ptr %0, align 8, !tbaa !25
  %137 = getelementptr inbounds nuw i8, ptr %136, i64 40
  store i32 1031, ptr %137, align 8, !tbaa !26
  %138 = load ptr, ptr %136, align 8, !tbaa !31
  tail call void %138(ptr noundef nonnull %0) #6
  br label %139

139:                                              ; preds = %135, %121
  %140 = zext nneg i32 %133 to i64
  %141 = getelementptr inbounds nuw i8, ptr %4, i64 %140
  %142 = load i8, ptr %141, align 1, !tbaa !30
  %143 = getelementptr inbounds i8, ptr %.067, i64 %41
  store i8 %142, ptr %143, align 1, !tbaa !30
  %144 = getelementptr inbounds nuw i8, ptr %.06166, i64 5
  %145 = load i8, ptr %130, align 1, !tbaa !30
  %146 = zext i8 %145 to i32
  %147 = shl nuw nsw i32 %146, 8
  %148 = getelementptr inbounds nuw i8, ptr %.06166, i64 6
  %149 = load i8, ptr %144, align 1, !tbaa !30
  %150 = zext i8 %149 to i32
  %151 = or disjoint i32 %147, %150
  %152 = icmp ugt i32 %151, %6
  br i1 %152, label %153, label %157

153:                                              ; preds = %139
  %154 = load ptr, ptr %0, align 8, !tbaa !25
  %155 = getelementptr inbounds nuw i8, ptr %154, i64 40
  store i32 1031, ptr %155, align 8, !tbaa !26
  %156 = load ptr, ptr %154, align 8, !tbaa !31
  tail call void %156(ptr noundef nonnull %0) #6
  br label %157

157:                                              ; preds = %153, %139
  %158 = zext nneg i32 %151 to i64
  %159 = getelementptr inbounds nuw i8, ptr %4, i64 %158
  %160 = load i8, ptr %159, align 1, !tbaa !30
  %161 = getelementptr inbounds i8, ptr %.067, i64 %42
  store i8 %160, ptr %161, align 1, !tbaa !30
  %162 = getelementptr inbounds i8, ptr %.067, i64 %47
  %163 = add i32 %.06265, -1
  %.not = icmp eq i32 %163, 0
  br i1 %.not, label %._crit_edge, label %.lr.ph.split, !llvm.loop !87

._crit_edge:                                      ; preds = %157, %97, %33
  ret i32 1
}